target datalayout = "e-m:e-p270:32:32-p271:32:32-p272:64:64-i64:64-i128:128-f80:128-n8:16:32:64-S128"
target triple = "x86_64-pc-linux-gnu"

%struct.FxuListLit = type { ptr, ptr, i32 }
%struct.FxuCube = type { i32, ptr, ptr, %struct.FxuListLit, ptr, ptr, ptr }
%struct.FxuLit = type { i32, i32, ptr, ptr, ptr, ptr, ptr, ptr }

; Function Attrs: nounwind uwtable
define void @Fxu_ListCubeDelLiteral(ptr noundef %0, ptr noundef %1) #0 {
  %3 = alloca ptr, align 8
  %4 = alloca ptr, align 8
  %5 = alloca ptr, align 8
  store ptr %0, ptr %3, align 8, !tbaa !24
  store ptr %1, ptr %4, align 8, !tbaa !69
  call void @llvm.lifetime.start.p0(i64 8, ptr %5) #3
  %6 = load ptr, ptr %3, align 8, !tbaa !24
  %7 = getelementptr inbounds nuw %struct.FxuCube, ptr %6, i32 0, i32 3
  store ptr %7, ptr %5, align 8, !tbaa !70
  %8 = load ptr, ptr %5, align 8, !tbaa !70
  %9 = getelementptr inbounds nuw %struct.FxuListLit, ptr %8, i32 0, i32 0
  %10 = load ptr, ptr %9, align 8, !tbaa !72
  %11 = load ptr, ptr %4, align 8, !tbaa !69
  %12 = icmp eq ptr %10, %11
  br i1 %12, label %13, label %19

13:                                               ; preds = %2
  %14 = load ptr, ptr %4, align 8, !tbaa !69
  %15 = getelementptr inbounds nuw %struct.FxuLit, ptr %14, i32 0, i32 5
  %16 = load ptr, ptr %15, align 8, !tbaa !76
  %17 = load ptr, ptr %5, align 8, !tbaa !70
  %18 = getelementptr inbounds nuw %struct.FxuListLit, ptr %17, i32 0, i32 0
  store ptr %16, ptr %18, align 8, !tbaa !72
  br label %19

19:                                               ; preds = %13, %2
  %20 = load ptr, ptr %5, align 8, !tbaa !70
  %21 = getelementptr inbounds nuw %struct.FxuListLit, ptr %20, i32 0, i32 1
  %22 = load ptr, ptr %21, align 8, !tbaa !73
  %23 = load ptr, ptr %4, align 8, !tbaa !69
  %24 = icmp eq ptr %22, %23
  br i1 %24, label %25, label %31

25:                                               ; preds = %19
  %26 = load ptr, ptr %4, align 8, !tbaa !69
  %27 = getelementptr inbounds nuw %struct.FxuLit, ptr %26, i32 0, i32 4
  %28 = load ptr, ptr %27, align 8, !tbaa !74
  %29 = load ptr, ptr %5, align 8, !tbaa !70
  %30 = getelementptr inbounds nuw %struct.FxuListLit, ptr %29, i32 0, i32 1
  store ptr %28, ptr %30, align 8, !tbaa !73
  br label %31

31:                                               ; preds = %25, %19
  %32 = load ptr, ptr %4, align 8, !tbaa !69
  %33 = getelementptr inbounds nuw %struct.FxuLit, ptr %32, i32 0, i32 4
  %34 = load ptr, ptr %33, align 8, !tbaa !74
  %35 = icmp ne ptr %34, null
  br i1 %35, label %36, label %44

36:                                               ; preds = %31
  %37 = load ptr, ptr %4, align 8, !tbaa !69
  %38 = getelementptr inbounds nuw %struct.FxuLit, ptr %37, i32 0, i32 5
  %39 = load ptr, ptr %38, align 8, !tbaa !76
  %40 = load ptr, ptr %4, align 8, !tbaa !69
  %41 = getelementptr inbounds nuw %struct.FxuLit, ptr %40, i32 0, i32 4
  %42 = load ptr, ptr %41, align 8, !tbaa !74
  %43 = getelementptr inbounds nuw %struct.FxuLit, ptr %42, i32 0, i32 5
  store ptr %39, ptr %43, align 8, !tbaa !76
  br label %44

44:                                               ; preds = %36, %31
  %45 = load ptr, ptr %4, align 8, !tbaa !69
  %46 = getelementptr inbounds nuw %struct.FxuLit, ptr %45, i32 0, i32 5
  %47 = load ptr, ptr %46, align 8, !tbaa !76
  %48 = icmp ne ptr %47, null
  br i1 %48, label %49, label %57

49:                                               ; preds = %44
  %50 = load ptr, ptr %4, align 8, !tbaa !69
  %51 = getelementptr inbounds nuw %struct.FxuLit, ptr %50, i32 0, i32 4
  %52 = load ptr, ptr %51, align 8, !tbaa !74
  %53 = load ptr, ptr %4, align 8, !tbaa !69
  %54 = getelementptr inbounds nuw %struct.FxuLit, ptr %53, i32 0, i32 5
  %55 = load ptr, ptr %54, align 8, !tbaa !76
  %56 = getelementptr inbounds nuw %struct.FxuLit, ptr %55, i32 0, i32 4
  store ptr %52, ptr %56, align 8, !tbaa !74
  br label %57

57:                                               ; preds = %49, %44
  %58 = load ptr, ptr %5, align 8, !tbaa !70
  %59 = getelementptr inbounds nuw %struct.FxuListLit, ptr %58, i32 0, i32 2
  %60 = load i32, ptr %59, align 8, !tbaa !77
  %61 = add nsw i32 %60, -1
  store i32 %61, ptr %59, align 8, !tbaa !77
  call void @llvm.lifetime.end.p0(i64 8, ptr %5) #3
  ret void
}